target datalayout = "e-m:e-p270:32:32-p271:32:32-p272:64:64-i64:64-i128:128-f80:128-n8:16:32:64-S128"
target triple = "x86_64-pc-linux-gnu"

%struct.ItemPointerData = type { %struct.BlockIdData, i16 }
%struct.BlockIdData = type { i16, i16 }
%struct.TupleTableSlot = type { i32, i16, i16, ptr, ptr, ptr, ptr, ptr, %struct.ItemPointerData, i32 }
%struct.ResultRelInfo = type { i32, i32, ptr, i32, ptr, ptr, i16, ptr, i8, ptr, ptr, ptr, i8, i8, ptr, ptr, ptr, ptr, ptr, ptr, ptr, ptr, ptr, ptr, i8, i32, i32, i32, ptr, ptr, ptr, ptr, ptr, ptr, ptr, i32, i32, ptr, ptr, ptr, ptr, [3 x ptr], ptr, ptr, ptr, i8, ptr, i8, ptr, ptr, ptr, ptr }
%struct.TriggerDesc = type { ptr, i32, i8, i8, i8, i8, i8, i8, i8, i8, i8, i8, i8, i8, i8, i8, i8, i8, i8, i8, i8, i8, i8 }
%struct.EState = type { i32, i32, ptr, ptr, ptr, i32, ptr, ptr, ptr, ptr, ptr, ptr, ptr, ptr, ptr, ptr, i32, ptr, ptr, ptr, ptr, ptr, ptr, ptr, ptr, ptr, ptr, i64, i64, i32, i32, i8, ptr, ptr, ptr, ptr, ptr, i8, i32, i32, ptr, i32, ptr, ptr, ptr, ptr }

; Function Attrs: nounwind uwtable
define dso_local void @ExecSimpleRelationDelete(ptr noundef %0, ptr noundef %1, ptr noundef %2, ptr noundef %3) #0 {
  %5 = alloca ptr, align 8
  %6 = alloca ptr, align 8
  %7 = alloca ptr, align 8
  %8 = alloca ptr, align 8
  %9 = alloca i8, align 1
  %10 = alloca ptr, align 8
  %11 = alloca ptr, align 8
  store ptr %0, ptr %5, align 8
  store ptr %1, ptr %6, align 8
  store ptr %2, ptr %7, align 8
  store ptr %3, ptr %8, align 8
  call void @llvm.lifetime.start.p0(i64 1, ptr %9) #7
  store i8 0, ptr %9, align 1
  call void @llvm.lifetime.start.p0(i64 8, ptr %10) #7
  %12 = load ptr, ptr %5, align 8
  %13 = getelementptr inbounds nuw %struct.ResultRelInfo, ptr %12, i32 0, i32 2
  %14 = load ptr, ptr %13, align 8
  store ptr %14, ptr %10, align 8
  call void @llvm.lifetime.start.p0(i64 8, ptr %11) #7
  %15 = load ptr, ptr %8, align 8
  %16 = getelementptr inbounds nuw %struct.TupleTableSlot, ptr %15, i32 0, i32 8
  store ptr %16, ptr %11, align 8
  %17 = load ptr, ptr %10, align 8
  call void @CheckCmdReplicaIdentity(ptr noundef %17, i32 noundef 4)
  %18 = load ptr, ptr %5, align 8
  %19 = getelementptr inbounds nuw %struct.ResultRelInfo, ptr %18, i32 0, i32 14
  %20 = load ptr, ptr %19, align 8
  %21 = icmp ne ptr %20, null
  br i1 %21, label %22, label %37

22:                                               ; preds = %4
  %23 = load ptr, ptr %5, align 8
  %24 = getelementptr inbounds nuw %struct.ResultRelInfo, ptr %23, i32 0, i32 14
  %25 = load ptr, ptr %24, align 8
  %26 = getelementptr inbounds nuw %struct.TriggerDesc, ptr %25, i32 0, i32 12
  %27 = load i8, ptr %26, align 2, !range !4, !noundef !5
  %28 = trunc i8 %27 to i1
  br i1 %28, label %29, label %37

29:                                               ; preds = %22
  %30 = load ptr, ptr %6, align 8
  %31 = load ptr, ptr %7, align 8
  %32 = load ptr, ptr %5, align 8
  %33 = load ptr, ptr %11, align 8
  %34 = call zeroext i1 @ExecBRDeleteTriggers(ptr noundef %30, ptr noundef %31, ptr noundef %32, ptr noundef %33, ptr noundef null, ptr noundef null, ptr noundef null, ptr noundef null)
  %35 = xor i1 %34, true
  %36 = zext i1 %35 to i8
  store i8 %36, ptr %9, align 1
  br label %37

37:                                               ; preds = %29, %22, %4
  %38 = load i8, ptr %9, align 1, !range !4, !noundef !5
  %39 = trunc i8 %38 to i1
  br i1 %39, label %49, label %40

40:                                               ; preds = %37
  %41 = load ptr, ptr %10, align 8
  %42 = load ptr, ptr %11, align 8
  %43 = load ptr, ptr %6, align 8
  %44 = getelementptr inbounds nuw %struct.EState, ptr %43, i32 0, i32 2
  %45 = load ptr, ptr %44, align 8
  call void @simple_table_tuple_delete(ptr noundef %41, ptr noundef %42, ptr noundef %45)
  %46 = load ptr, ptr %6, align 8
  %47 = load ptr, ptr %5, align 8
  %48 = load ptr, ptr %11, align 8
  call void @ExecARDeleteTriggers(ptr noundef %46, ptr noundef %47, ptr noundef %48, ptr noundef null, ptr noundef null, i1 noundef zeroext false)
  br label %49

49:                                               ; preds = %40, %37
  call void @llvm.lifetime.end.p0(i64 8, ptr %11) #7
  call void @llvm.lifetime.end.p0(i64 8, ptr %10) #7
  call void @llvm.lifetime.end.p0(i64 1, ptr %9) #7
  ret void
}