; Function Attrs: nounwind uwtable
define dso_local void @ExecSimpleRelationDelete(ptr noundef %0, ptr noundef %1, ptr noundef %2, ptr noundef %3) local_unnamed_addr #0 {
  %5 = getelementptr inbounds nuw i8, ptr %0, i64 8
  %6 = load ptr, ptr %5, align 8
  %7 = getelementptr inbounds nuw i8, ptr %3, i64 48
  tail call void @CheckCmdReplicaIdentity(ptr noundef %6, i32 noundef 4)
  %8 = getelementptr inbounds nuw i8, ptr %0, i64 96
  %9 = load ptr, ptr %8, align 8
  %.not = icmp eq ptr %9, null
  br i1 %.not, label %.critedge, label %10

10:                                               ; preds = %4
  %11 = getelementptr inbounds nuw i8, ptr %9, i64 22
  %12 = load i8, ptr %11, align 2, !range !4, !noundef !5
  %13 = trunc nuw i8 %12 to i1
  br i1 %13, label %14, label %.critedge

14:                                               ; preds = %10
  %15 = tail call zeroext i1 @ExecBRDeleteTriggers(ptr noundef %1, ptr noundef %2, ptr noundef nonnull %0, ptr noundef nonnull %7, ptr noundef null, ptr noundef null, ptr noundef null, ptr noundef null) #5
  br i1 %15, label %.critedge, label %18

.critedge:                                        ; preds = %10, %4, %14
  %16 = getelementptr inbounds nuw i8, ptr %1, i64 8
  %17 = load ptr, ptr %16, align 8
  tail call void @simple_table_tuple_delete(ptr noundef %6, ptr noundef nonnull %7, ptr noundef %17) #5
  tail call void @ExecARDeleteTriggers(ptr noundef %1, ptr noundef nonnull %0, ptr noundef nonnull %7, ptr noundef null, ptr noundef null, i1 noundef zeroext false) #5
  br label %18

18:                                               ; preds = %.critedge, %14
  ret void
}